; Function Attrs: mustprogress nounwind uwtable
define noundef zeroext i1 @_ZN32pxrInternal_v0_24__pxrReserved__16TfStringContainsERKNSt7__cxx1112basic_stringIcSt11char_traitsIcESaIcEEERKNS_7TfTokenE(ptr noundef nonnull align 8 dereferenceable(32) %0, ptr nocapture noundef nonnull readonly align 8 dereferenceable(8) %1) local_unnamed_addr #6 personality ptr @__gxx_personality_v0 {
  %3 = load ptr, ptr %1, align 8
  %4 = ptrtoint ptr %3 to i64
  %5 = and i64 %4, -8
  %.not.i = icmp eq i64 %5, 0
  br i1 %.not.i, label %_ZNK32pxrInternal_v0_24__pxrReserved__7TfToken7GetTextEv.exit, label %6

6:                                                ; preds = %2
  %7 = inttoptr i64 %5 to ptr
  %8 = getelementptr inbounds nuw i8, ptr %7, i64 16
  %9 = tail call noundef ptr @_ZNKSt7__cxx1112basic_stringIcSt11char_traitsIcESaIcEE5c_strEv(ptr noundef nonnull align 8 dereferenceable(32) %8) #22
  br label %_ZNK32pxrInternal_v0_24__pxrReserved__7TfToken7GetTextEv.exit

_ZNK32pxrInternal_v0_24__pxrReserved__7TfToken7GetTextEv.exit: ; preds = %2, %6
  %10 = phi ptr [ %9, %6 ], [ @.str, %2 ]
  %11 = tail call noundef i64 @_ZNKSt7__cxx1112basic_stringIcSt11char_traitsIcESaIcEE4findEPKcm(ptr noundef nonnull align 8 dereferenceable(32) %0, ptr noundef %10, i64 noundef 0) #22
  %12 = icmp ne i64 %11, -1
  ret i1 %12
}